target datalayout = "e-m:e-p270:32:32-p271:32:32-p272:64:64-i64:64-i128:128-f80:128-n8:16:32:64-S128"
target triple = "x86_64-pc-linux-gnu"

%"struct.std::_Vector_base.11" = type { %"struct.std::_Vector_base<int, std::allocator<int>>::_Vector_impl" }
%"struct.std::_Vector_base<int, std::allocator<int>>::_Vector_impl" = type { %"struct.std::_Vector_base<int, std::allocator<int>>::_Vector_impl_data" }
%"struct.std::_Vector_base<int, std::allocator<int>>::_Vector_impl_data" = type { ptr, ptr, ptr }

@stderr = external global ptr, align 8
@.str.64 = private unnamed_addr constant [2 x i8] c",\00", align 1
@.str.73 = private unnamed_addr constant [4 x i8] c"RAW\00", align 1
@.str.74 = private unnamed_addr constant [4 x i8] c"RGB\00", align 1
@.str.75 = private unnamed_addr constant [4 x i8] c"BGR\00", align 1
@.str.76 = private unnamed_addr constant [5 x i8] c"GRAY\00", align 1
@.str.77 = private unnamed_addr constant [5 x i8] c"RGBA\00", align 1
@.str.78 = private unnamed_addr constant [5 x i8] c"BGRA\00", align 1

; Function Attrs: mustprogress nounwind uwtable
define linkonce_odr dso_local noundef nonnull align 4 dereferenceable(4) ptr @_ZNKSt6vectorIiSaIiEEixEm(ptr noundef nonnull align 8 dereferenceable(24) %0, i64 noundef %1) #2 comdat align 2 {
  %3 = alloca ptr, align 8
  %4 = alloca i64, align 8
  store ptr %0, ptr %3, align 8, !tbaa !60
  store i64 %1, ptr %4, align 8, !tbaa !149
  %5 = load ptr, ptr %3, align 8
  %6 = getelementptr inbounds nuw %"struct.std::_Vector_base.11", ptr %5, i32 0, i32 0
  %7 = getelementptr inbounds nuw %"struct.std::_Vector_base<int, std::allocator<int>>::_Vector_impl_data", ptr %6, i32 0, i32 0
  %8 = load ptr, ptr %7, align 8, !tbaa !69
  %9 = load i64, ptr %4, align 8, !tbaa !149
  %10 = getelementptr inbounds nuw i32, ptr %8, i64 %9
  ret ptr %10
}

; Function Attrs: mustprogress nounwind uwtable
define linkonce_odr dso_local noundef i64 @_ZNKSt6vectorIiSaIiEE4sizeEv(ptr noundef nonnull align 8 dereferenceable(24) %0) #2 comdat align 2 {
  %2 = alloca ptr, align 8
  store ptr %0, ptr %2, align 8, !tbaa !60
  %3 = load ptr, ptr %2, align 8
  %4 = getelementptr inbounds nuw %"struct.std::_Vector_base.11", ptr %3, i32 0, i32 0
  %5 = getelementptr inbounds nuw %"struct.std::_Vector_base<int, std::allocator<int>>::_Vector_impl_data", ptr %4, i32 0, i32 1
  %6 = load ptr, ptr %5, align 8, !tbaa !70
  %7 = getelementptr inbounds nuw %"struct.std::_Vector_base.11", ptr %3, i32 0, i32 0
  %8 = getelementptr inbounds nuw %"struct.std::_Vector_base<int, std::allocator<int>>::_Vector_impl_data", ptr %7, i32 0, i32 0
  %9 = load ptr, ptr %8, align 8, !tbaa !69
  %10 = ptrtoint ptr %6 to i64
  %11 = ptrtoint ptr %9 to i64
  %12 = sub i64 %10, %11
  %13 = sdiv exact i64 %12, 4
  ret i64 %13
}

; Function Attrs: mustprogress nounwind uwtable
define internal void @_ZL21print_pixel_type_listRKSt6vectorIiSaIiEE(ptr noundef nonnull align 8 dereferenceable(24) %0) #2 {
  %2 = alloca ptr, align 8
  %3 = alloca i64, align 8
  %4 = alloca i32, align 4
  store ptr %0, ptr %2, align 8, !tbaa !60
  call void @llvm.lifetime.start.p0(i64 8, ptr %3) #16
  store i64 0, ptr %3, align 8, !tbaa !149
  br label %5

5:                                                ; preds = %61, %1
  %6 = load i64, ptr %3, align 8, !tbaa !149
  %7 = load ptr, ptr %2, align 8, !tbaa !60
  %8 = call noundef i64 @_ZNKSt6vectorIiSaIiEE4sizeEv(ptr noundef nonnull align 8 dereferenceable(24) %7) #16
  %9 = icmp ult i64 %6, %8
  br i1 %9, label %11, label %10

10:                                               ; preds = %5
  call void @llvm.lifetime.end.p0(i64 8, ptr %3) #16
  br label %64

11:                                               ; preds = %5
  call void @llvm.lifetime.start.p0(i64 4, ptr %4) #16
  %12 = load ptr, ptr %2, align 8, !tbaa !60
  %13 = load i64, ptr %3, align 8, !tbaa !149
  %14 = call noundef nonnull align 4 dereferenceable(4) ptr @_ZNKSt6vectorIiSaIiEEixEm(ptr noundef nonnull align 8 dereferenceable(24) %12, i64 noundef %13) #16
  %15 = load i32, ptr %14, align 4, !tbaa !137
  store i32 %15, ptr %4, align 4, !tbaa !137
  %16 = load i32, ptr %4, align 4, !tbaa !137
  %17 = icmp eq i32 %16, -233
  br i1 %17, label %18, label %21

18:                                               ; preds = %11
  %19 = load ptr, ptr @stderr, align 8, !tbaa !252
  %20 = call i32 (ptr, ptr, ...) @fprintf(ptr noundef %19, ptr noundef @.str.73) #16
  br label %21

21:                                               ; preds = %18, %11
  %22 = load i32, ptr %4, align 4, !tbaa !137
  %23 = icmp eq i32 %22, 1
  br i1 %23, label %24, label %27

24:                                               ; preds = %21
  %25 = load ptr, ptr @stderr, align 8, !tbaa !252
  %26 = call i32 (ptr, ptr, ...) @fprintf(ptr noundef %25, ptr noundef @.str.74) #16
  br label %27

27:                                               ; preds = %24, %21
  %28 = load i32, ptr %4, align 4, !tbaa !137
  %29 = icmp eq i32 %28, 2
  br i1 %29, label %30, label %33

30:                                               ; preds = %27
  %31 = load ptr, ptr @stderr, align 8, !tbaa !252
  %32 = call i32 (ptr, ptr, ...) @fprintf(ptr noundef %31, ptr noundef @.str.75) #16
  br label %33

33:                                               ; preds = %30, %27
  %34 = load i32, ptr %4, align 4, !tbaa !137
  %35 = icmp eq i32 %34, 3
  br i1 %35, label %36, label %39

36:                                               ; preds = %33
  %37 = load ptr, ptr @stderr, align 8, !tbaa !252
  %38 = call i32 (ptr, ptr, ...) @fprintf(ptr noundef %37, ptr noundef @.str.76) #16
  br label %39

39:                                               ; preds = %36, %33
  %40 = load i32, ptr %4, align 4, !tbaa !137
  %41 = icmp eq i32 %40, 4
  br i1 %41, label %42, label %45

42:                                               ; preds = %39
  %43 = load ptr, ptr @stderr, align 8, !tbaa !252
  %44 = call i32 (ptr, ptr, ...) @fprintf(ptr noundef %43, ptr noundef @.str.77) #16
  br label %45

45:                                               ; preds = %42, %39
  %46 = load i32, ptr %4, align 4, !tbaa !137
  %47 = icmp eq i32 %46, 5
  br i1 %47, label %48, label %51

48:                                               ; preds = %45
  %49 = load ptr, ptr @stderr, align 8, !tbaa !252
  %50 = call i32 (ptr, ptr, ...) @fprintf(ptr noundef %49, ptr noundef @.str.78) #16
  br label %51

51:                                               ; preds = %48, %45
  %52 = load i64, ptr %3, align 8, !tbaa !149
  %53 = load ptr, ptr %2, align 8, !tbaa !60
  %54 = call noundef i64 @_ZNKSt6vectorIiSaIiEE4sizeEv(ptr noundef nonnull align 8 dereferenceable(24) %53) #16
  %55 = sub i64 %54, 1
  %56 = icmp ne i64 %52, %55
  br i1 %56, label %57, label %60

57:                                               ; preds = %51
  %58 = load ptr, ptr @stderr, align 8, !tbaa !252
  %59 = call i32 (ptr, ptr, ...) @fprintf(ptr noundef %58, ptr noundef @.str.64) #16
  br label %60

60:                                               ; preds = %57, %51
  call void @llvm.lifetime.end.p0(i64 4, ptr %4) #16
  br label %61

61:                                               ; preds = %60
  %62 = load i64, ptr %3, align 8, !tbaa !149
  %63 = add i64 %62, 1
  store i64 %63, ptr %3, align 8, !tbaa !149
  br label %5, !llvm.loop !484

64:                                               ; preds = %10
  ret void
}