; Function Attrs: mustprogress nofree norecurse nounwind uwtable
define internal fastcc void @_ZL21print_pixel_type_listRKSt6vectorIiSaIiEE(ptr noundef nonnull readonly align 8 captures(none) dereferenceable(24) %0) unnamed_addr #23 {
  %2 = getelementptr inbounds nuw i8, ptr %0, i64 8
  %3 = load ptr, ptr %2, align 8, !tbaa !99
  %4 = load ptr, ptr %0, align 8, !tbaa !52
  %.not13 = icmp eq ptr %3, %4
  br i1 %.not13, label %._crit_edge, label %.lr.ph

._crit_edge:                                      ; preds = %36, %1
  ret void

.lr.ph:                                           ; preds = %1, %36
  %5 = phi ptr [ %37, %36 ], [ %4, %1 ]
  %.012 = phi i64 [ %38, %36 ], [ 0, %1 ]
  %6 = getelementptr inbounds nuw i32, ptr %5, i64 %.012
  %7 = load i32, ptr %6, align 4, !tbaa !101
  switch i32 %7, label %26 [
    i32 -233, label %8
    i32 1, label %11
    i32 2, label %14
    i32 3, label %17
    i32 4, label %20
    i32 5, label %23
  ]

8:                                                ; preds = %.lr.ph
  %9 = load ptr, ptr @stderr, align 8, !tbaa !138
  %10 = tail call i64 @fwrite(ptr nonnull @.str.73, i64 3, i64 1, ptr %9) #37
  br label %26

11:                                               ; preds = %.lr.ph
  %12 = load ptr, ptr @stderr, align 8, !tbaa !138
  %13 = tail call i64 @fwrite(ptr nonnull @.str.74, i64 3, i64 1, ptr %12) #37
  br label %26

14:                                               ; preds = %.lr.ph
  %15 = load ptr, ptr @stderr, align 8, !tbaa !138
  %16 = tail call i64 @fwrite(ptr nonnull @.str.75, i64 3, i64 1, ptr %15) #37
  br label %26

17:                                               ; preds = %.lr.ph
  %18 = load ptr, ptr @stderr, align 8, !tbaa !138
  %19 = tail call i64 @fwrite(ptr nonnull @.str.76, i64 4, i64 1, ptr %18) #37
  br label %26

20:                                               ; preds = %.lr.ph
  %21 = load ptr, ptr @stderr, align 8, !tbaa !138
  %22 = tail call i64 @fwrite(ptr nonnull @.str.77, i64 4, i64 1, ptr %21) #37
  br label %26

23:                                               ; preds = %.lr.ph
  %24 = load ptr, ptr @stderr, align 8, !tbaa !138
  %25 = tail call i64 @fwrite(ptr nonnull @.str.78, i64 4, i64 1, ptr %24) #37
  br label %26

26:                                               ; preds = %20, %17, %14, %11, %8, %.lr.ph, %23
  %27 = load ptr, ptr %2, align 8, !tbaa !99
  %28 = load ptr, ptr %0, align 8, !tbaa !52
  %29 = ptrtoint ptr %27 to i64
  %30 = ptrtoint ptr %28 to i64
  %31 = sub i64 %29, %30
  %32 = ashr exact i64 %31, 2
  %33 = add nsw i64 %32, -1
  %.not = icmp eq i64 %.012, %33
  br i1 %.not, label %36, label %34

34:                                               ; preds = %26
  %35 = load ptr, ptr @stderr, align 8, !tbaa !138
  %fputc = tail call i32 @fputc(i32 44, ptr %35)
  %.pre = load ptr, ptr %2, align 8, !tbaa !99
  %.pre14 = load ptr, ptr %0, align 8, !tbaa !52
  %.pre15 = ptrtoint ptr %.pre to i64
  %.pre16 = ptrtoint ptr %.pre14 to i64
  %.pre18 = sub i64 %.pre15, %.pre16
  %.pre20 = ashr exact i64 %.pre18, 2
  br label %36

36:                                               ; preds = %34, %26
  %.pre-phi21 = phi i64 [ %.pre20, %34 ], [ %32, %26 ]
  %37 = phi ptr [ %.pre14, %34 ], [ %28, %26 ]
  %38 = add nuw i64 %.012, 1
  %39 = icmp ult i64 %38, %.pre-phi21
  br i1 %39, label %.lr.ph, label %._crit_edge, !llvm.loop !364
}